; Function Attrs: nounwind uwtable
define range(i32 0, 192) i32 @ssl_set_client_hello_version(ptr noundef %0) local_unnamed_addr #0 {
  %2 = getelementptr inbounds nuw i8, ptr %0, i64 608
  %3 = load i64, ptr %2, align 8, !tbaa !103
  %4 = icmp eq i64 %3, 0
  br i1 %4, label %9, label %5

5:                                                ; preds = %1
  %6 = getelementptr inbounds nuw i8, ptr %0, i64 744
  %7 = load i64, ptr %6, align 8, !tbaa !104
  %8 = icmp eq i64 %7, 0
  br i1 %8, label %9, label %ssl_get_min_max_version.exit

9:                                                ; preds = %5, %1
  %10 = getelementptr inbounds nuw i8, ptr %0, i64 24
  %11 = load ptr, ptr %10, align 8, !tbaa !93
  %12 = load i32, ptr %11, align 8, !tbaa !87
  switch i32 %12, label %13 [
    i32 65536, label %17
    i32 131071, label %16
  ]

13:                                               ; preds = %9
  %14 = getelementptr inbounds nuw i8, ptr %0, i64 72
  %15 = load i32, ptr %14, align 8, !tbaa !90
  br label %35

16:                                               ; preds = %9
  br label %17

17:                                               ; preds = %16, %9
  %.036.i = phi ptr [ @dtls_version_table, %16 ], [ @tls_version_table, %9 ]
  %18 = load i32, ptr %.036.i, align 16, !tbaa !94
  %.not55.i = icmp eq i32 %18, 0
  br i1 %.not55.i, label %ssl_get_min_max_version.exit, label %.lr.ph.split.us.i

.lr.ph.split.us.i:                                ; preds = %17, %.sink.split.i
  %19 = phi i32 [ %33, %.sink.split.i ], [ %18, %17 ]
  %.03559.us.i = phi ptr [ %32, %.sink.split.i ], [ %.036.i, %17 ]
  %.03758.us.i = phi i32 [ %.1.us.i, %.sink.split.i ], [ 0, %17 ]
  %.03857.us.i = phi i32 [ %.139.us.i, %.sink.split.i ], [ 1, %17 ]
  %.04056.us.i = phi i32 [ %.141.us.i, %.sink.split.i ], [ 0, %17 ]
  %20 = getelementptr inbounds nuw i8, ptr %.03559.us.i, i64 8
  %21 = load ptr, ptr %20, align 8, !tbaa !96
  %22 = icmp eq ptr %21, null
  br i1 %22, label %.sink.split.i, label %23

23:                                               ; preds = %.lr.ph.split.us.i
  %24 = tail call ptr %21() #11
  %25 = icmp eq i32 %.03857.us.i, 1
  %26 = icmp eq i32 %.04056.us.i, 0
  %or.cond.us.i = select i1 %25, i1 %26, i1 false
  %27 = tail call fastcc i32 @ssl_method_error(ptr noundef %0, ptr noundef %24)
  %.not4549.us.i = icmp eq i32 %27, 0
  br i1 %or.cond.us.i, label %.thread.us.i, label %28

28:                                               ; preds = %23
  br i1 %.not4549.us.i, label %29, label %.sink.split.i

29:                                               ; preds = %28
  %.not46.us.i = icmp eq i32 %.03857.us.i, 0
  br i1 %.not46.us.i, label %.sink.split.i, label %.thread51.us.i

.thread.us.i:                                     ; preds = %23
  br i1 %.not4549.us.i, label %.thread51.us.i, label %.sink.split.i

.thread51.us.i:                                   ; preds = %.thread.us.i, %29
  %.25054.us.i = phi i32 [ %.04056.us.i, %29 ], [ %19, %.thread.us.i ]
  %30 = load i32, ptr %24, align 8, !tbaa !87
  %31 = freeze i32 %30
  br label %.sink.split.i

.sink.split.i:                                    ; preds = %.thread51.us.i, %29, %.thread.us.i, %28, %.lr.ph.split.us.i
  %.141.us.i = phi i32 [ 0, %.lr.ph.split.us.i ], [ %.04056.us.i, %28 ], [ %19, %.thread.us.i ], [ %.25054.us.i, %.thread51.us.i ], [ %.04056.us.i, %29 ]
  %.139.us.i = phi i32 [ 1, %.lr.ph.split.us.i ], [ 1, %28 ], [ 1, %.thread.us.i ], [ 0, %.thread51.us.i ], [ 0, %29 ]
  %.1.us.i = phi i32 [ %.03758.us.i, %.lr.ph.split.us.i ], [ %.03758.us.i, %28 ], [ %.03758.us.i, %.thread.us.i ], [ %31, %.thread51.us.i ], [ %.03758.us.i, %29 ]
  %32 = getelementptr inbounds nuw i8, ptr %.03559.us.i, i64 24
  %33 = load i32, ptr %32, align 8, !tbaa !94
  %.not.us.i = icmp eq i32 %33, 0
  br i1 %.not.us.i, label %._crit_edge.i, label %.lr.ph.split.us.i, !llvm.loop !97

._crit_edge.i:                                    ; preds = %.sink.split.i
  %34 = icmp eq i32 %.1.us.i, 0
  br i1 %34, label %ssl_get_min_max_version.exit, label %._crit_edge.i._crit_edge

._crit_edge.i._crit_edge:                         ; preds = %._crit_edge.i
  %.pre = load ptr, ptr %10, align 8, !tbaa !81
  br label %35

35:                                               ; preds = %._crit_edge.i._crit_edge, %13
  %36 = phi ptr [ %.pre, %._crit_edge.i._crit_edge ], [ %11, %13 ]
  %.2.ph = phi i32 [ %.1.us.i, %._crit_edge.i._crit_edge ], [ %15, %13 ]
  %37 = getelementptr inbounds nuw i8, ptr %0, i64 72
  store i32 %.2.ph, ptr %37, align 8, !tbaa !90
  %38 = getelementptr inbounds nuw i8, ptr %36, i64 216
  %39 = load ptr, ptr %38, align 8, !tbaa !82
  %40 = getelementptr inbounds nuw i8, ptr %39, i64 80
  %41 = load i32, ptr %40, align 8, !tbaa !85
  %42 = and i32 %41, 8
  %.not11 = icmp eq i32 %42, 0
  br i1 %.not11, label %47, label %43

43:                                               ; preds = %35
  %44 = icmp eq i32 %.2.ph, 256
  br i1 %44, label %45, label %48

45:                                               ; preds = %43
  %46 = tail call i32 @ssl_set_record_protocol_version(ptr noundef nonnull %0, i32 noundef 256) #11
  %.not12 = icmp eq i32 %46, 0
  br i1 %.not12, label %ssl_get_min_max_version.exit, label %48

47:                                               ; preds = %35
  %spec.select = tail call i32 @llvm.smin.i32(i32 %.2.ph, i32 771)
  br label %48

48:                                               ; preds = %47, %43, %45
  %.016 = phi i32 [ 256, %45 ], [ %.2.ph, %43 ], [ %spec.select, %47 ]
  %49 = getelementptr inbounds nuw i8, ptr %0, i64 2516
  store i32 %.016, ptr %49, align 4, !tbaa !234
  br label %ssl_get_min_max_version.exit

ssl_get_min_max_version.exit:                     ; preds = %._crit_edge.i, %17, %45, %5, %48
  %.0 = phi i32 [ 0, %48 ], [ 0, %5 ], [ 0, %45 ], [ 191, %17 ], [ 191, %._crit_edge.i ]
  ret i32 %.0
}